; Function Attrs: nounwind uwtable
define ptr @l_Lean_resolveGlobalName___at_Lean_Elab_OpenDecl_resolveId___spec__3___rarg___lambda__5(ptr noundef %0, ptr noundef %1, ptr noundef %2, ptr noundef %3, ptr noundef %4, ptr noundef %5) #0 {
  tail call void @lean_inc_heartbeat() #6
  %7 = tail call noalias ptr @mi_malloc_small(i64 noundef 48) #6
  %8 = icmp eq ptr %7, null
  br i1 %8, label %9, label %lean_alloc_closure.exit

9:                                                ; preds = %6
  tail call void @lean_internal_panic_out_of_memory() #7
  unreachable

lean_alloc_closure.exit:                          ; preds = %6
  %10 = getelementptr inbounds nuw i8, ptr %7, i64 4
  store i32 1, ptr %7, align 4, !tbaa !8
  store i32 -184549328, ptr %10, align 4
  %11 = getelementptr inbounds nuw i8, ptr %7, i64 8
  store ptr @l_ST_Prim_Ref_get___boxed, ptr %11, align 8, !tbaa !4
  %12 = getelementptr inbounds nuw i8, ptr %7, i64 16
  store i16 4, ptr %12, align 8, !tbaa !12
  %13 = getelementptr inbounds nuw i8, ptr %7, i64 18
  store i16 3, ptr %13, align 2, !tbaa !12
  %14 = getelementptr inbounds nuw i8, ptr %7, i64 24
  store ptr inttoptr (i64 1 to ptr), ptr %14, align 8, !tbaa !4
  %15 = getelementptr inbounds nuw i8, ptr %7, i64 32
  store ptr inttoptr (i64 1 to ptr), ptr %15, align 8, !tbaa !4
  %16 = getelementptr inbounds nuw i8, ptr %7, i64 40
  store ptr %0, ptr %16, align 8, !tbaa !4
  %17 = tail call ptr @lean_apply_2(ptr noundef %1, ptr noundef nonnull inttoptr (i64 1 to ptr), ptr noundef nonnull %7) #6
  %18 = ptrtoint ptr %2 to i64
  %19 = and i64 %18, 1
  %.not = icmp eq i64 %19, 0
  br i1 %.not, label %20, label %lean_inc.exit31

20:                                               ; preds = %lean_alloc_closure.exit
  %.val.i = load i32, ptr %2, align 4, !tbaa !8
  %21 = icmp sgt i32 %.val.i, 0
  br i1 %21, label %22, label %24, !prof !11

22:                                               ; preds = %20
  %23 = add nuw i32 %.val.i, 1
  store i32 %23, ptr %2, align 4, !tbaa !8
  br label %lean_inc.exit31

24:                                               ; preds = %20
  %.not.i = icmp eq i32 %.val.i, 0
  br i1 %.not.i, label %lean_inc.exit31, label %25

25:                                               ; preds = %24
  tail call void @lean_inc_ref_cold(ptr noundef nonnull %2) #6
  br label %lean_inc.exit31

lean_inc.exit31:                                  ; preds = %25, %24, %22, %lean_alloc_closure.exit
  tail call void @lean_inc_heartbeat() #6
  %26 = tail call noalias ptr @mi_malloc_small(i64 noundef 32) #6
  %27 = icmp eq ptr %26, null
  br i1 %27, label %28, label %lean_alloc_closure.exit32

28:                                               ; preds = %lean_inc.exit31
  tail call void @lean_internal_panic_out_of_memory() #7
  unreachable

lean_alloc_closure.exit32:                        ; preds = %lean_inc.exit31
  %29 = getelementptr inbounds nuw i8, ptr %26, i64 4
  store i32 1, ptr %26, align 4, !tbaa !8
  store i32 -184549344, ptr %29, align 4
  %30 = getelementptr inbounds nuw i8, ptr %26, i64 8
  store ptr @l_Lean_resolveGlobalName___at_Lean_Elab_OpenDecl_resolveId___spec__3___rarg___lambda__1, ptr %30, align 8, !tbaa !4
  %31 = getelementptr inbounds nuw i8, ptr %26, i64 16
  store i16 2, ptr %31, align 8, !tbaa !12
  %32 = getelementptr inbounds nuw i8, ptr %26, i64 18
  store i16 1, ptr %32, align 2, !tbaa !12
  %33 = getelementptr inbounds nuw i8, ptr %26, i64 24
  store ptr %2, ptr %33, align 8, !tbaa !4
  %34 = ptrtoint ptr %3 to i64
  %35 = and i64 %34, 1
  %.not43 = icmp eq i64 %35, 0
  br i1 %.not43, label %36, label %lean_inc.exit30

36:                                               ; preds = %lean_alloc_closure.exit32
  %.val.i33 = load i32, ptr %3, align 4, !tbaa !8
  %37 = icmp sgt i32 %.val.i33, 0
  br i1 %37, label %38, label %40, !prof !11

38:                                               ; preds = %36
  %39 = add nuw i32 %.val.i33, 1
  store i32 %39, ptr %3, align 4, !tbaa !8
  br label %lean_inc.exit30

40:                                               ; preds = %36
  %.not.i34 = icmp eq i32 %.val.i33, 0
  br i1 %.not.i34, label %lean_inc.exit30, label %41

41:                                               ; preds = %40
  tail call void @lean_inc_ref_cold(ptr noundef nonnull %3) #6
  br label %lean_inc.exit30

lean_inc.exit30:                                  ; preds = %41, %40, %38, %lean_alloc_closure.exit32
  %42 = ptrtoint ptr %17 to i64
  %43 = and i64 %42, 1
  %.not44 = icmp eq i64 %43, 0
  br i1 %.not44, label %44, label %lean_inc.exit29

44:                                               ; preds = %lean_inc.exit30
  %.val.i36 = load i32, ptr %17, align 4, !tbaa !8
  %45 = icmp sgt i32 %.val.i36, 0
  br i1 %45, label %46, label %48, !prof !11

46:                                               ; preds = %44
  %47 = add nuw i32 %.val.i36, 1
  store i32 %47, ptr %17, align 4, !tbaa !8
  br label %lean_inc.exit29

48:                                               ; preds = %44
  %.not.i37 = icmp eq i32 %.val.i36, 0
  br i1 %.not.i37, label %lean_inc.exit29, label %49

49:                                               ; preds = %48
  tail call void @lean_inc_ref_cold(ptr noundef nonnull %17) #6
  br label %lean_inc.exit29

lean_inc.exit29:                                  ; preds = %49, %48, %46, %lean_inc.exit30
  %50 = tail call ptr @lean_apply_4(ptr noundef %3, ptr noundef nonnull inttoptr (i64 1 to ptr), ptr noundef nonnull inttoptr (i64 1 to ptr), ptr noundef %17, ptr noundef nonnull %26) #6
  br i1 %.not43, label %51, label %lean_inc.exit

51:                                               ; preds = %lean_inc.exit29
  %.val.i39 = load i32, ptr %3, align 4, !tbaa !8
  %52 = icmp sgt i32 %.val.i39, 0
  br i1 %52, label %53, label %55, !prof !11

53:                                               ; preds = %51
  %54 = add nuw i32 %.val.i39, 1
  store i32 %54, ptr %3, align 4, !tbaa !8
  br label %lean_inc.exit

55:                                               ; preds = %51
  %.not.i40 = icmp eq i32 %.val.i39, 0
  br i1 %.not.i40, label %lean_inc.exit, label %56

56:                                               ; preds = %55
  tail call void @lean_inc_ref_cold(ptr noundef nonnull %3) #6
  br label %lean_inc.exit

lean_inc.exit:                                    ; preds = %56, %55, %53, %lean_inc.exit29
  tail call void @lean_inc_heartbeat() #6
  %57 = tail call noalias ptr @mi_malloc_small(i64 noundef 64) #6
  %58 = icmp eq ptr %57, null
  br i1 %58, label %59, label %lean_alloc_closure.exit42

59:                                               ; preds = %lean_inc.exit
  tail call void @lean_internal_panic_out_of_memory() #7
  unreachable

lean_alloc_closure.exit42:                        ; preds = %lean_inc.exit
  %60 = getelementptr inbounds nuw i8, ptr %57, i64 4
  store i32 1, ptr %57, align 4, !tbaa !8
  store i32 -184549312, ptr %60, align 4
  %61 = getelementptr inbounds nuw i8, ptr %57, i64 8
  store ptr @l_Lean_resolveGlobalName___at_Lean_Elab_OpenDecl_resolveId___spec__3___rarg___lambda__4, ptr %61, align 8, !tbaa !4
  %62 = getelementptr inbounds nuw i8, ptr %57, i64 16
  store i16 6, ptr %62, align 8, !tbaa !12
  %63 = getelementptr inbounds nuw i8, ptr %57, i64 18
  store i16 5, ptr %63, align 2, !tbaa !12
  %64 = getelementptr inbounds nuw i8, ptr %57, i64 24
  store ptr %2, ptr %64, align 8, !tbaa !4
  %65 = getelementptr inbounds nuw i8, ptr %57, i64 32
  store ptr %3, ptr %65, align 8, !tbaa !4
  %66 = getelementptr inbounds nuw i8, ptr %57, i64 40
  store ptr %17, ptr %66, align 8, !tbaa !4
  %67 = getelementptr inbounds nuw i8, ptr %57, i64 48
  store ptr %5, ptr %67, align 8, !tbaa !4
  %68 = getelementptr inbounds nuw i8, ptr %57, i64 56
  store ptr %4, ptr %68, align 8, !tbaa !4
  %69 = tail call ptr @lean_apply_4(ptr noundef %3, ptr noundef nonnull inttoptr (i64 1 to ptr), ptr noundef nonnull inttoptr (i64 1 to ptr), ptr noundef %50, ptr noundef nonnull %57) #6
  ret ptr %69
}